target datalayout = "e-m:e-p270:32:32-p271:32:32-p272:64:64-i64:64-i128:128-f80:128-n8:16:32:64-S128"
target triple = "x86_64-pc-linux-gnu"

%struct.H5FS_t = type { %struct.H5C_cache_entry_t, i64, i64, i64, i64, i32, i16, i32, i32, i32, i64, i64, i64, i64, i32, i64, i64, ptr, i8, i32, i8, i8, i32, i64, i64, i64, ptr }
%struct.H5C_cache_entry_t = type { ptr, i64, i64, ptr, i8, ptr, i8, i8, i8, i8, i32, i8, i8, i8, i8, i8, i32, ptr, i32, i32, i32, i32, i32, i8, i8, ptr, ptr, ptr, ptr, ptr, ptr, i8, i32, i8, i64, ptr, i64, i64, i32, i8, i32, i32, i8, ptr, ptr, ptr }

@.str.2 = private unnamed_addr constant [98 x i8] c"generated/home/dtcxzyw/WorkSpace/Projects/compilers/llvm-opt-benchmark/bench/hdf5/hdf5/src/H5FS.c\00", align 1
@H5E_FSPACE_g = external global i64, align 8
@H5E_CANTMARKDIRTY_g = external global i64, align 8
@.str.15 = private unnamed_addr constant [42 x i8] c"unable to mark free space header as dirty\00", align 1
@__func__.H5FS__dirty = private unnamed_addr constant [12 x i8] c"H5FS__dirty\00", align 1

; Function Attrs: nounwind uwtable
define i32 @H5FS__dirty(ptr noundef %0) #0 {
  %2 = alloca ptr, align 8
  %3 = alloca i32, align 4
  %4 = alloca i8, align 1
  store ptr %0, ptr %2, align 8
  store i32 0, ptr %3, align 4
  store i8 0, ptr %4, align 1
  %5 = load ptr, ptr %2, align 8
  %6 = getelementptr inbounds %struct.H5FS_t, ptr %5, i32 0, i32 15
  %7 = load i64, ptr %6, align 8
  %8 = icmp ne i64 %7, -1
  br i1 %8, label %9, label %29

9:                                                ; preds = %1
  %10 = load ptr, ptr %2, align 8
  %11 = call i32 @H5AC_mark_entry_dirty(ptr noundef %10)
  %12 = icmp slt i32 %11, 0
  br i1 %12, label %13, label %28

13:                                               ; preds = %9
  br label %14

14:                                               ; preds = %13
  br label %15

15:                                               ; preds = %14
  br label %16

16:                                               ; preds = %15
  %17 = load i64, ptr @H5E_FSPACE_g, align 8
  %18 = load i64, ptr @H5E_CANTMARKDIRTY_g, align 8
  %19 = call i32 (ptr, ptr, i32, i64, i64, ptr, ...) @H5E_printf_stack(ptr noundef @.str.2, ptr noundef @__func__.H5FS__dirty, i32 noundef 775, i64 noundef %17, i64 noundef %18, ptr noundef @.str.15)
  br label %20

20:                                               ; preds = %16
  store i8 1, ptr %4, align 1
  %21 = load i8, ptr %4, align 1
  %22 = trunc i8 %21 to i1
  %23 = zext i1 %22 to i8
  store i8 %23, ptr %4, align 1
  br label %24

24:                                               ; preds = %20
  br label %25

25:                                               ; preds = %24
  store i32 -1, ptr %3, align 4
  br label %30

26:                                               ; No predecessors!
  br label %27

27:                                               ; preds = %26
  br label %28

28:                                               ; preds = %27, %9
  br label %29

29:                                               ; preds = %28, %1
  br label %30

30:                                               ; preds = %29, %25
  %31 = load i32, ptr %3, align 4
  ret i32 %31
}