; Function Attrs: nounwind uwtable
define range(i32 -1, 1) i32 @H5FS__dirty(ptr noundef %0) local_unnamed_addr #0 {
  %2 = getelementptr inbounds i8, ptr %0, i64 344
  %3 = load i64, ptr %2, align 8
  %.not = icmp eq i64 %3, -1
  br i1 %.not, label %11, label %4

4:                                                ; preds = %1
  %5 = tail call i32 @H5AC_mark_entry_dirty(ptr noundef nonnull %0) #5
  %6 = icmp slt i32 %5, 0
  br i1 %6, label %7, label %11

7:                                                ; preds = %4
  %8 = load i64, ptr @H5E_FSPACE_g, align 8
  %9 = load i64, ptr @H5E_CANTMARKDIRTY_g, align 8
  %10 = tail call i32 (ptr, ptr, i32, i64, i64, ptr, ...) @H5E_printf_stack(ptr noundef nonnull @.str.2, ptr noundef nonnull @__func__.H5FS__dirty, i32 noundef 775, i64 noundef %8, i64 noundef %9, ptr noundef nonnull @.str.15) #5
  br label %11

11:                                               ; preds = %1, %4, %7
  %.0 = phi i32 [ -1, %7 ], [ 0, %4 ], [ 0, %1 ]
  ret i32 %.0
}